target datalayout = "e-m:e-p270:32:32-p271:32:32-p272:64:64-i64:64-i128:128-f80:128-n8:16:32:64-S128"
target triple = "x86_64-pc-linux-gnu"

; Function Attrs: nounwind uwtable
define internal void @unquantize_inter_differences_int(ptr noundef %0, i32 noundef %1, i32 noundef %2, ptr noundef %3) #0 {
  %5 = alloca ptr, align 8
  %6 = alloca i32, align 4
  %7 = alloca i32, align 4
  %8 = alloca ptr, align 8
  %9 = alloca i32, align 4
  %10 = alloca i32, align 4
  %11 = alloca i32, align 4
  %12 = alloca i32, align 4
  store ptr %0, ptr %5, align 8, !tbaa !3
  store i32 %1, ptr %6, align 4, !tbaa !8
  store i32 %2, ptr %7, align 4, !tbaa !8
  store ptr %3, ptr %8, align 8, !tbaa !3
  call void @llvm.lifetime.start.p0(i64 4, ptr %9) #7
  call void @llvm.lifetime.start.p0(i64 4, ptr %10) #7
  call void @llvm.lifetime.start.p0(i64 4, ptr %11) #7
  store i32 0, ptr %10, align 4, !tbaa !8
  br label %13

13:                                               ; preds = %79, %4
  %14 = load i32, ptr %10, align 4, !tbaa !8
  %15 = load i32, ptr %6, align 4, !tbaa !8
  %16 = icmp slt i32 %14, %15
  br i1 %16, label %17, label %82

17:                                               ; preds = %13
  store i32 0, ptr %11, align 4, !tbaa !8
  br label %18

18:                                               ; preds = %75, %17
  %19 = load i32, ptr %11, align 4, !tbaa !8
  %20 = icmp slt i32 %19, 3
  br i1 %20, label %21, label %78

21:                                               ; preds = %18
  call void @llvm.lifetime.start.p0(i64 4, ptr %12) #7
  %22 = load ptr, ptr %8, align 8, !tbaa !3
  %23 = load i32, ptr %10, align 4, !tbaa !8
  %24 = mul nsw i32 %23, 3
  %25 = load i32, ptr %11, align 4, !tbaa !8
  %26 = add nsw i32 %24, %25
  %27 = sext i32 %26 to i64
  %28 = getelementptr inbounds i32, ptr %22, i64 %27
  %29 = load i32, ptr %28, align 4, !tbaa !8
  store i32 %29, ptr %12, align 4, !tbaa !8
  %30 = load i32, ptr %12, align 4, !tbaa !8
  %31 = load ptr, ptr %5, align 8, !tbaa !3
  %32 = load i32, ptr %10, align 4, !tbaa !8
  %33 = mul nsw i32 %32, 3
  %34 = load i32, ptr %11, align 4, !tbaa !8
  %35 = add nsw i32 %33, %34
  %36 = sext i32 %35 to i64
  %37 = getelementptr inbounds i32, ptr %31, i64 %36
  store i32 %30, ptr %37, align 4, !tbaa !8
  store i32 1, ptr %9, align 4, !tbaa !8
  br label %38

38:                                               ; preds = %71, %21
  %39 = load i32, ptr %9, align 4, !tbaa !8
  %40 = load i32, ptr %7, align 4, !tbaa !8
  %41 = icmp slt i32 %39, %40
  br i1 %41, label %42, label %74

42:                                               ; preds = %38
  %43 = load ptr, ptr %8, align 8, !tbaa !3
  %44 = load i32, ptr %9, align 4, !tbaa !8
  %45 = load i32, ptr %6, align 4, !tbaa !8
  %46 = mul nsw i32 %44, %45
  %47 = mul nsw i32 %46, 3
  %48 = load i32, ptr %10, align 4, !tbaa !8
  %49 = mul nsw i32 %48, 3
  %50 = add nsw i32 %47, %49
  %51 = load i32, ptr %11, align 4, !tbaa !8
  %52 = add nsw i32 %50, %51
  %53 = sext i32 %52 to i64
  %54 = getelementptr inbounds i32, ptr %43, i64 %53
  %55 = load i32, ptr %54, align 4, !tbaa !8
  %56 = load i32, ptr %12, align 4, !tbaa !8
  %57 = add nsw i32 %56, %55
  store i32 %57, ptr %12, align 4, !tbaa !8
  %58 = load i32, ptr %12, align 4, !tbaa !8
  %59 = load ptr, ptr %5, align 8, !tbaa !3
  %60 = load i32, ptr %9, align 4, !tbaa !8
  %61 = load i32, ptr %6, align 4, !tbaa !8
  %62 = mul nsw i32 %60, %61
  %63 = mul nsw i32 %62, 3
  %64 = load i32, ptr %10, align 4, !tbaa !8
  %65 = mul nsw i32 %64, 3
  %66 = add nsw i32 %63, %65
  %67 = load i32, ptr %11, align 4, !tbaa !8
  %68 = add nsw i32 %66, %67
  %69 = sext i32 %68 to i64
  %70 = getelementptr inbounds i32, ptr %59, i64 %69
  store i32 %58, ptr %70, align 4, !tbaa !8
  br label %71

71:                                               ; preds = %42
  %72 = load i32, ptr %9, align 4, !tbaa !8
  %73 = add nsw i32 %72, 1
  store i32 %73, ptr %9, align 4, !tbaa !8
  br label %38, !llvm.loop !76

74:                                               ; preds = %38
  call void @llvm.lifetime.end.p0(i64 4, ptr %12) #7
  br label %75

75:                                               ; preds = %74
  %76 = load i32, ptr %11, align 4, !tbaa !8
  %77 = add nsw i32 %76, 1
  store i32 %77, ptr %11, align 4, !tbaa !8
  br label %18, !llvm.loop !77

78:                                               ; preds = %18
  br label %79

79:                                               ; preds = %78
  %80 = load i32, ptr %10, align 4, !tbaa !8
  %81 = add nsw i32 %80, 1
  store i32 %81, ptr %10, align 4, !tbaa !8
  br label %13, !llvm.loop !78

82:                                               ; preds = %13
  call void @llvm.lifetime.end.p0(i64 4, ptr %11) #7
  call void @llvm.lifetime.end.p0(i64 4, ptr %10) #7
  call void @llvm.lifetime.end.p0(i64 4, ptr %9) #7
  ret void
}