; Function Attrs: nofree norecurse nosync nounwind memory(argmem: readwrite) uwtable
define internal fastcc void @unquantize_inter_differences_int(ptr noundef nonnull writeonly captures(none) %0, i32 noundef %1, i32 noundef range(i32 2, -2147483648) %2, ptr noundef readonly captures(none) %3) unnamed_addr #6 {
  %5 = icmp sgt i32 %1, 0
  br i1 %5, label %.preheader.preheader, label %._crit_edge

.preheader.preheader:                             ; preds = %4
  %wide.trip.count42 = zext nneg i32 %1 to i64
  %wide.trip.count = zext nneg i32 %2 to i64
  br label %.preheader

.preheader:                                       ; preds = %.preheader.preheader, %26
  %indvars.iv39 = phi i64 [ 0, %.preheader.preheader ], [ %indvars.iv.next40, %26 ]
  %6 = mul nuw nsw i64 %indvars.iv39, 3
  %7 = trunc nuw nsw i64 %indvars.iv39 to i32
  br label %8

8:                                                ; preds = %.preheader, %25
  %indvars.iv35 = phi i64 [ 0, %.preheader ], [ %indvars.iv.next36, %25 ]
  %9 = add nuw nsw i64 %indvars.iv35, %6
  %10 = getelementptr inbounds nuw i32, ptr %3, i64 %9
  %11 = load i32, ptr %10, align 4, !tbaa !3
  %12 = getelementptr inbounds nuw i32, ptr %0, i64 %9
  store i32 %11, ptr %12, align 4, !tbaa !3
  %13 = trunc nuw nsw i64 %indvars.iv35 to i32
  br label %14

14:                                               ; preds = %8, %14
  %indvars.iv = phi i64 [ 1, %8 ], [ %indvars.iv.next, %14 ]
  %.031 = phi i32 [ %11, %8 ], [ %23, %14 ]
  %15 = trunc i64 %indvars.iv to i32
  %16 = mul i32 %1, %15
  %17 = add nuw i32 %16, %7
  %18 = mul i32 %17, 3
  %19 = add nsw i32 %18, %13
  %20 = sext i32 %19 to i64
  %21 = getelementptr inbounds i32, ptr %3, i64 %20
  %22 = load i32, ptr %21, align 4, !tbaa !3
  %23 = add nsw i32 %22, %.031
  %24 = getelementptr inbounds i32, ptr %0, i64 %20
  store i32 %23, ptr %24, align 4, !tbaa !3
  %indvars.iv.next = add nuw nsw i64 %indvars.iv, 1
  %exitcond.not = icmp eq i64 %indvars.iv.next, %wide.trip.count
  br i1 %exitcond.not, label %25, label %14, !llvm.loop !63

25:                                               ; preds = %14
  %indvars.iv.next36 = add nuw nsw i64 %indvars.iv35, 1
  %exitcond38.not = icmp eq i64 %indvars.iv.next36, 3
  br i1 %exitcond38.not, label %26, label %8, !llvm.loop !64

26:                                               ; preds = %25
  %indvars.iv.next40 = add nuw nsw i64 %indvars.iv39, 1
  %exitcond43.not = icmp eq i64 %indvars.iv.next40, %wide.trip.count42
  br i1 %exitcond43.not, label %._crit_edge, label %.preheader, !llvm.loop !65

._crit_edge:                                      ; preds = %26, %4
  ret void
}